(lp0
F1.9781512605042018
aF0.93697478991596639
aF0.22941176470588234
aF0.036134453781512609
aF0.031932773109243695
aF0.015126050420168067
aF0.040336134453781515
aF0.20378151260504201
aF0.35210084033613448
aF0.47100840336134453
aF0.62731092436974789
aF0.71218487394957986
aF0.57058823529411762
aF0.60084033613445376
aF0.54495798319327726
aF0.55294117647058827
aF0.49663865546218489
aF0.58991596638655464
aF0.65336134453781514
aF0.72100840336134453
aF0.87773109243697478
aF1.2483193277310924
aF1.5344537815126051
aF1.9747899159663866
a.